; Function Attrs: mustprogress nounwind uwtable
define dso_local void @_ZN4llvm11LLVMContext5yieldEv(ptr noundef nonnull align 8 dereferenceable(8) %0) local_unnamed_addr #0 align 2 {
  %2 = load ptr, ptr %0, align 8
  %3 = getelementptr inbounds nuw i8, ptr %2, i64 152
  %4 = load ptr, ptr %3, align 8
  %.not = icmp eq ptr %4, null
  br i1 %.not, label %8, label %5

5:                                                ; preds = %1
  %6 = getelementptr inbounds nuw i8, ptr %2, i64 160
  %7 = load ptr, ptr %6, align 8
  tail call void %4(ptr noundef nonnull %0, ptr noundef %7) #17
  br label %8

8:                                                ; preds = %5, %1
  ret void
}